; Function Attrs: mustprogress uwtable
define internal void @_ZN12_GLOBAL__N_17mat2gpuERKN2cv11_InputArrayERKNS0_12_OutputArrayE(ptr noundef nonnull align 8 dereferenceable(24) %0, ptr noundef nonnull align 8 dereferenceable(24) %1) #0 personality ptr @__gxx_personality_v0 {
  %3 = alloca %"class.cv::_InputArray", align 8
  %4 = alloca %"class.cv::Mat", align 8
  %5 = tail call noundef nonnull align 8 dereferenceable(64) ptr @_ZNK2cv12_OutputArray12getGpuMatRefEv(ptr noundef nonnull align 8 dereferenceable(24) %1)
  call void @llvm.lifetime.start.p0(i64 24, ptr nonnull %3) #11
  call void @llvm.lifetime.start.p0(i64 96, ptr nonnull %4) #11
  %6 = tail call noundef i32 @_ZNK2cv11_InputArray4kindEv(ptr noundef nonnull align 8 dereferenceable(24) %0), !noalias !52
  %7 = icmp eq i32 %6, 65536
  br i1 %7, label %8, label %11

8:                                                ; preds = %2
  %9 = getelementptr inbounds nuw i8, ptr %0, i64 8
  %10 = load ptr, ptr %9, align 8, !tbaa !10, !noalias !52
  call void @_ZN2cv3MatC1ERKS0_(ptr noundef nonnull align 8 dereferenceable(96) %4, ptr noundef nonnull align 8 dereferenceable(96) %10)
  br label %12

11:                                               ; preds = %2
  call void @_ZNK2cv11_InputArray7getMat_Ei(ptr dead_on_unwind nonnull writable sret(%"class.cv::Mat") align 8 %4, ptr noundef nonnull align 8 dereferenceable(24) %0, i32 noundef -1)
  br label %12

12:                                               ; preds = %11, %8
  %13 = getelementptr inbounds nuw i8, ptr %3, i64 16
  store i32 0, ptr %13, align 8, !tbaa !42
  %14 = getelementptr inbounds nuw i8, ptr %3, i64 20
  store i32 0, ptr %14, align 4, !tbaa !43
  store i32 16842752, ptr %3, align 8, !tbaa !3
  %15 = getelementptr inbounds nuw i8, ptr %3, i64 8
  store ptr %4, ptr %15, align 8, !tbaa !10
  invoke void @_ZN2cv4cuda6GpuMat6uploadERKNS_11_InputArrayE(ptr noundef nonnull align 8 dereferenceable(64) %5, ptr noundef nonnull align 8 dereferenceable(24) %3)
          to label %16 unwind label %17

16:                                               ; preds = %12
  call void @_ZN2cv3MatD1Ev(ptr noundef nonnull align 8 dereferenceable(96) %4) #11
  call void @llvm.lifetime.end.p0(i64 96, ptr nonnull %4) #11
  call void @llvm.lifetime.end.p0(i64 24, ptr nonnull %3) #11
  ret void

17:                                               ; preds = %12
  %18 = landingpad { ptr, i32 }
          cleanup
  call void @_ZN2cv3MatD1Ev(ptr noundef nonnull align 8 dereferenceable(96) %4) #11
  call void @llvm.lifetime.end.p0(i64 96, ptr nonnull %4) #11
  call void @llvm.lifetime.end.p0(i64 24, ptr nonnull %3) #11
  resume { ptr, i32 } %18
}